; ModuleID = 'source-C-CXX/6/765.c'
source_filename = "source-C-CXX/6/765.c"
target datalayout = "e-m:e-p270:32:32-p271:32:32-p272:64:64-i64:64-f80:128-n8:16:32:64-S128"
target triple = "x86_64-pc-linux-gnu"

@.str = private unnamed_addr constant [7 x i8] c"%s%s%s\00", align 1
@.str.3 = private unnamed_addr constant [3 x i8] c"%s\00", align 1
@.str.4 = private unnamed_addr constant [3 x i8] c"%d\00", align 1

; Function Attrs: nofree nounwind sspstrong uwtable
define dso_local i32 @main() local_unnamed_addr #0 {
  %1 = alloca [256 x i8], align 16
  %2 = alloca [256 x i8], align 16
  %3 = alloca [256 x i8], align 16
  %4 = alloca [256 x [256 x i8]], align 16
  %5 = alloca i32, align 4
  %6 = getelementptr inbounds [256 x i8], [256 x i8]* %1, i64 0, i64 0
  call void @llvm.lifetime.start.p0i8(i64 256, i8* nonnull %6) #6
  %7 = getelementptr inbounds [256 x i8], [256 x i8]* %2, i64 0, i64 0
  call void @llvm.lifetime.start.p0i8(i64 256, i8* nonnull %7) #6
  %8 = getelementptr inbounds [256 x i8], [256 x i8]* %3, i64 0, i64 0
  call void @llvm.lifetime.start.p0i8(i64 256, i8* nonnull %8) #6
  %9 = getelementptr inbounds [256 x [256 x i8]], [256 x [256 x i8]]* %4, i64 0, i64 0, i64 0
  call void @llvm.lifetime.start.p0i8(i64 65536, i8* nonnull %9) #6
  %10 = call i32 (i8*, ...) @__isoc99_scanf(i8* getelementptr inbounds ([7 x i8], [7 x i8]* @.str, i64 0, i64 0), i8* nonnull %6, i8* nonnull %7, i8* nonnull %8)
  %11 = call i64 @strlen(i8* noundef nonnull %7) #7
  %12 = trunc i64 %11 to i32
  %13 = bitcast i32* %5 to i8*
  call void @llvm.lifetime.start.p0i8(i64 4, i8* nonnull %13) #6
  %14 = shl i64 %11, 32
  %15 = add i64 %14, -4294967296
  %16 = ashr exact i64 %15, 32
  %17 = getelementptr inbounds [256 x i8], [256 x i8]* %1, i64 0, i64 %16
  %18 = load i8, i8* %17, align 1, !tbaa !5
  %19 = icmp eq i8 %18, 0
  br i1 %19, label %62, label %20

20:                                               ; preds = %0
  %21 = icmp sgt i32 %12, 0
  br i1 %21, label %22, label %36

22:                                               ; preds = %20
  %23 = and i64 %11, 4294967295
  br label %24

24:                                               ; preds = %22, %24
  %25 = phi i64 [ 0, %22 ], [ %28, %24 ]
  %26 = getelementptr [256 x [256 x i8]], [256 x [256 x i8]]* %4, i64 0, i64 %25, i64 0
  %27 = getelementptr [256 x i8], [256 x i8]* %1, i64 0, i64 %25
  call void @llvm.memcpy.p0i8.p0i8.i64(i8* align 16 %26, i8* align 1 %27, i64 %23, i1 false)
  %28 = add nuw i64 %25, 1
  %29 = add i64 %25, %11
  %30 = shl i64 %29, 32
  %31 = ashr exact i64 %30, 32
  %32 = getelementptr inbounds [256 x i8], [256 x i8]* %1, i64 0, i64 %31
  %33 = load i8, i8* %32, align 1, !tbaa !5
  %34 = icmp eq i8 %33, 0
  br i1 %34, label %35, label %24, !llvm.loop !8

35:                                               ; preds = %24
  br i1 %19, label %62, label %36

36:                                               ; preds = %20, %35
  %37 = getelementptr inbounds [256 x [256 x i8]], [256 x [256 x i8]]* %4, i64 0, i64 0, i64 0
  %38 = call i32 @strcmp(i8* noundef nonnull %37, i8* noundef nonnull %7) #7
  %39 = icmp eq i32 %38, 0
  br i1 %39, label %46, label %53

40:                                               ; preds = %53
  %41 = getelementptr inbounds [256 x [256 x i8]], [256 x [256 x i8]]* %4, i64 0, i64 %55, i64 0
  %42 = call i32 @strcmp(i8* noundef nonnull %41, i8* noundef nonnull %7) #7
  %43 = icmp eq i32 %42, 0
  br i1 %43, label %44, label %53, !llvm.loop !10

44:                                               ; preds = %40
  %45 = add i64 %55, %11
  br label %46

46:                                               ; preds = %44, %36
  %47 = phi i64 [ %55, %44 ], [ 0, %36 ]
  %48 = phi i64 [ %45, %44 ], [ %11, %36 ]
  %49 = trunc i64 %47 to i32
  %50 = icmp eq i32 %49, 0
  br i1 %50, label %72, label %51

51:                                               ; preds = %46
  %52 = and i64 %47, 4294967295
  br label %64

53:                                               ; preds = %36, %40
  %54 = phi i64 [ %55, %40 ], [ 0, %36 ]
  %55 = add nuw i64 %54, 1
  %56 = add i64 %54, %11
  %57 = shl i64 %56, 32
  %58 = ashr exact i64 %57, 32
  %59 = getelementptr inbounds [256 x i8], [256 x i8]* %1, i64 0, i64 %58
  %60 = load i8, i8* %59, align 1, !tbaa !5
  %61 = icmp eq i8 %60, 0
  br i1 %61, label %62, label %40, !llvm.loop !10

62:                                               ; preds = %53, %0, %35
  %63 = call i32 @puts(i8* nonnull %6)
  br label %91

64:                                               ; preds = %51, %64
  %65 = phi i64 [ 0, %51 ], [ %70, %64 ]
  %66 = getelementptr inbounds [256 x i8], [256 x i8]* %1, i64 0, i64 %65
  %67 = load i8, i8* %66, align 1, !tbaa !5
  %68 = sext i8 %67 to i32
  %69 = call i32 @putchar(i32 %68)
  %70 = add nuw nsw i64 %65, 1
  %71 = icmp eq i64 %70, %52
  br i1 %71, label %72, label %64, !llvm.loop !11

72:                                               ; preds = %64, %46
  %73 = icmp sgt i32 %12, 0
  br i1 %73, label %74, label %76

74:                                               ; preds = %72
  %75 = call i32 (i8*, ...) @printf(i8* nonnull dereferenceable(1) getelementptr inbounds ([3 x i8], [3 x i8]* @.str.3, i64 0, i64 0), i8* nonnull %8)
  br label %76

76:                                               ; preds = %74, %72
  %77 = shl i64 %48, 32
  %78 = ashr exact i64 %77, 32
  %79 = getelementptr inbounds [256 x i8], [256 x i8]* %1, i64 0, i64 %78
  %80 = load i8, i8* %79, align 1, !tbaa !5
  %81 = icmp eq i8 %80, 0
  br i1 %81, label %91, label %82

82:                                               ; preds = %76, %82
  %83 = phi i64 [ %87, %82 ], [ %78, %76 ]
  %84 = phi i8 [ %89, %82 ], [ %80, %76 ]
  %85 = sext i8 %84 to i32
  %86 = call i32 @putchar(i32 %85)
  %87 = add i64 %83, 1
  %88 = getelementptr inbounds [256 x i8], [256 x i8]* %1, i64 0, i64 %87
  %89 = load i8, i8* %88, align 1, !tbaa !5
  %90 = icmp eq i8 %89, 0
  br i1 %90, label %91, label %82, !llvm.loop !12

91:                                               ; preds = %82, %76, %62
  %92 = call i32 (i8*, ...) @__isoc99_scanf(i8* getelementptr inbounds ([3 x i8], [3 x i8]* @.str.4, i64 0, i64 0), i32* nonnull %5)
  call void @llvm.lifetime.end.p0i8(i64 4, i8* nonnull %13) #6
  call void @llvm.lifetime.end.p0i8(i64 65536, i8* nonnull %9) #6
  call void @llvm.lifetime.end.p0i8(i64 256, i8* nonnull %8) #6
  call void @llvm.lifetime.end.p0i8(i64 256, i8* nonnull %7) #6
  call void @llvm.lifetime.end.p0i8(i64 256, i8* nonnull %6) #6
  ret i32 0
}

; Function Attrs: argmemonly mustprogress nofree nosync nounwind willreturn
declare void @llvm.lifetime.start.p0i8(i64 immarg, i8* nocapture) #1

; Function Attrs: nofree nounwind
declare noundef i32 @__isoc99_scanf(i8* nocapture noundef readonly, ...) local_unnamed_addr #2

; Function Attrs: argmemonly mustprogress nofree nounwind readonly willreturn
declare i64 @strlen(i8* nocapture) local_unnamed_addr #3

; Function Attrs: argmemonly mustprogress nofree nounwind readonly willreturn
declare i32 @strcmp(i8* nocapture, i8* nocapture) local_unnamed_addr #3

; Function Attrs: nofree nounwind
declare noundef i32 @printf(i8* nocapture noundef readonly, ...) local_unnamed_addr #2

; Function Attrs: argmemonly mustprogress nofree nosync nounwind willreturn
declare void @llvm.lifetime.end.p0i8(i64 immarg, i8* nocapture) #1

; Function Attrs: nofree nounwind
declare noundef i32 @putchar(i32 noundef) local_unnamed_addr #4

; Function Attrs: nofree nounwind
declare noundef i32 @puts(i8* nocapture noundef readonly) local_unnamed_addr #4

; Function Attrs: argmemonly nofree nounwind willreturn
declare void @llvm.memcpy.p0i8.p0i8.i64(i8* noalias nocapture writeonly, i8* noalias nocapture readonly, i64, i1 immarg) #5


!llvm.module.flags = !{!0, !1, !2, !3}
!llvm.ident = !{!4}

!0 = !{i32 1, !"wchar_size", i32 4}
!1 = !{i32 7, !"PIC Level", i32 2}
!2 = !{i32 7, !"PIE Level", i32 2}
!3 = !{i32 7, !"uwtable", i32 1}
!4 = !{!"clang version 13.0.0"}
!5 = !{!6, !6, i64 0}
!6 = !{!"omnipotent char", !7, i64 0}
!7 = !{!"Simple C/C++ TBAA"}
!8 = distinct !{!8, !9}
!9 = !{!"llvm.loop.mustprogress"}
!10 = distinct !{!10, !9}
!11 = distinct !{!11, !9}
!12 = distinct !{!12, !9}
